target datalayout = "e-m:e-p270:32:32-p271:32:32-p272:64:64-i64:64-i128:128-f80:128-n8:16:32:64-S128"
target triple = "x86_64-pc-linux-gnu"

%struct.loopargs_st = type { ptr, ptr, ptr, ptr, ptr, ptr, ptr, [16 x i8], i64, i64, i64, [7 x ptr], [7 x ptr], [7 x ptr], [7 x ptr], [2 x ptr], [2 x ptr], [22 x ptr], [22 x ptr], [24 x ptr], [2 x ptr], [2 x ptr], [1 x ptr], [1 x ptr], [1 x ptr], ptr, ptr, [24 x i64], [5 x ptr], ptr, ptr, ptr, ptr, [111 x ptr], [111 x ptr], [111 x ptr], [111 x i64], [111 x i64], [111 x ptr], [111 x ptr], [111 x ptr], [111 x ptr], [111 x ptr], [111 x ptr], [111 x i64], [111 x i64], [111 x ptr] }

@bio_err = external global ptr, align 8
@testmode = internal global i32 0, align 4
@lengths = internal global ptr @lengths_list, align 8
@aead = internal global i32 0, align 4
@testnum = internal global i32 0, align 4
@mode_op = internal global i32 0, align 4
@.str.169 = private unnamed_addr constant [26 x i8] c"\0AFailed to set iv length\0A\00", align 1
@.str.170 = private unnamed_addr constant [27 x i8] c"\0AFailed to set tag length\0A\00", align 1
@aead_iv = internal global [12 x i8] zeroinitializer, align 1
@.str.171 = private unnamed_addr constant [33 x i8] c"\0ACouldn't set input text length\0A\00", align 1
@.str.172 = private unnamed_addr constant [38 x i8] c"\0ACouldn't insert AAD when encrypting\0A\00", align 1
@run = internal global i32 0, align 4
@.str.438 = private unnamed_addr constant [27 x i8] c"\0AFailed to set key and iv\0A\00", align 1
@.str.444 = private unnamed_addr constant [29 x i8] c"\0AFailed to encrypt the data\0A\00", align 1
@aad = internal global <{ i8, [12 x i8] }> <{ i8 -52, [12 x i8] zeroinitializer }>, align 1

; Function Attrs: nounwind uwtable
define internal i32 @EVP_Update_loop_aead_enc(ptr noundef %0) #0 {
  %2 = alloca ptr, align 8
  %3 = alloca ptr, align 8
  %4 = alloca ptr, align 8
  %5 = alloca ptr, align 8
  %6 = alloca ptr, align 8
  %7 = alloca i32, align 4
  %8 = alloca i32, align 4
  %9 = alloca i32, align 4
  store ptr %0, ptr %2, align 8, !tbaa !115
  call void @llvm.lifetime.start.p0(i64 8, ptr %3) #11
  %10 = load ptr, ptr %2, align 8, !tbaa !115
  %11 = load ptr, ptr %10, align 8, !tbaa !37
  store ptr %11, ptr %3, align 8, !tbaa !37
  call void @llvm.lifetime.start.p0(i64 8, ptr %4) #11
  %12 = load ptr, ptr %3, align 8, !tbaa !37
  %13 = getelementptr inbounds nuw %struct.loopargs_st, ptr %12, i32 0, i32 2
  %14 = load ptr, ptr %13, align 8, !tbaa !92
  store ptr %14, ptr %4, align 8, !tbaa !39
  call void @llvm.lifetime.start.p0(i64 8, ptr %5) #11
  %15 = load ptr, ptr %3, align 8, !tbaa !37
  %16 = getelementptr inbounds nuw %struct.loopargs_st, ptr %15, i32 0, i32 6
  %17 = load ptr, ptr %16, align 8, !tbaa !140
  store ptr %17, ptr %5, align 8, !tbaa !39
  call void @llvm.lifetime.start.p0(i64 8, ptr %6) #11
  %18 = load ptr, ptr %3, align 8, !tbaa !37
  %19 = getelementptr inbounds nuw %struct.loopargs_st, ptr %18, i32 0, i32 31
  %20 = load ptr, ptr %19, align 8, !tbaa !117
  store ptr %20, ptr %6, align 8, !tbaa !219
  call void @llvm.lifetime.start.p0(i64 4, ptr %7) #11
  call void @llvm.lifetime.start.p0(i64 4, ptr %8) #11
  call void @llvm.lifetime.start.p0(i64 4, ptr %9) #11
  store i32 0, ptr %9, align 4, !tbaa !4
  store i32 0, ptr %8, align 4, !tbaa !4
  br label %21

21:                                               ; preds = %118, %1
  %22 = load volatile i32, ptr @run, align 4, !tbaa !4
  %23 = icmp ne i32 %22, 0
  br i1 %23, label %24, label %30

24:                                               ; preds = %21
  %25 = load i32, ptr %8, align 4, !tbaa !4
  %26 = load i32, ptr @testmode, align 4, !tbaa !4
  %27 = icmp ne i32 %26, 0
  %28 = select i1 %27, i32 1, i32 2147483647
  %29 = icmp slt i32 %25, %28
  br label %30

30:                                               ; preds = %24, %21
  %31 = phi i1 [ false, %21 ], [ %29, %24 ]
  br i1 %31, label %32, label %121

32:                                               ; preds = %30
  %33 = load i32, ptr @mode_op, align 4, !tbaa !4
  %34 = icmp ne i32 %33, 65540
  br i1 %34, label %35, label %43

35:                                               ; preds = %32
  %36 = load ptr, ptr %6, align 8, !tbaa !219
  %37 = call i32 @EVP_CIPHER_CTX_ctrl(ptr noundef %36, i32 noundef 9, i32 noundef 12, ptr noundef null)
  %38 = icmp ne i32 %37, 0
  br i1 %38, label %42, label %39

39:                                               ; preds = %35
  %40 = load ptr, ptr @bio_err, align 8, !tbaa !53
  %41 = call i32 (ptr, ptr, ...) @BIO_printf(ptr noundef %40, ptr noundef @.str.169)
  call void @dofail()
  call void @exit(i32 noundef 1) #13
  unreachable

42:                                               ; preds = %35
  br label %43

43:                                               ; preds = %42, %32
  %44 = load i32, ptr @mode_op, align 4, !tbaa !4
  %45 = icmp ne i32 %44, 6
  br i1 %45, label %46, label %60

46:                                               ; preds = %43
  %47 = load i32, ptr @mode_op, align 4, !tbaa !4
  %48 = icmp ne i32 %47, 65540
  br i1 %48, label %49, label %60

49:                                               ; preds = %46
  %50 = load i32, ptr @mode_op, align 4, !tbaa !4
  %51 = icmp ne i32 %50, 65541
  br i1 %51, label %52, label %60

52:                                               ; preds = %49
  %53 = load ptr, ptr %6, align 8, !tbaa !219
  %54 = call i32 @EVP_CIPHER_CTX_ctrl(ptr noundef %53, i32 noundef 17, i32 noundef 16, ptr noundef null)
  %55 = icmp ne i32 %54, 0
  br i1 %55, label %59, label %56

56:                                               ; preds = %52
  %57 = load ptr, ptr @bio_err, align 8, !tbaa !53
  %58 = call i32 (ptr, ptr, ...) @BIO_printf(ptr noundef %57, ptr noundef @.str.170)
  call void @dofail()
  call void @exit(i32 noundef 1) #13
  unreachable

59:                                               ; preds = %52
  br label %60

60:                                               ; preds = %59, %49, %46, %43
  %61 = load ptr, ptr %6, align 8, !tbaa !219
  %62 = load ptr, ptr %5, align 8, !tbaa !39
  %63 = call i32 @EVP_CipherInit_ex(ptr noundef %61, ptr noundef null, ptr noundef null, ptr noundef %62, ptr noundef @aead_iv, i32 noundef -1)
  %64 = icmp ne i32 %63, 0
  br i1 %64, label %68, label %65

65:                                               ; preds = %60
  %66 = load ptr, ptr @bio_err, align 8, !tbaa !53
  %67 = call i32 (ptr, ptr, ...) @BIO_printf(ptr noundef %66, ptr noundef @.str.438)
  call void @dofail()
  call void @exit(i32 noundef 1) #13
  unreachable

68:                                               ; preds = %60
  %69 = load i32, ptr @mode_op, align 4, !tbaa !4
  %70 = icmp eq i32 %69, 7
  br i1 %70, label %71, label %84

71:                                               ; preds = %68
  %72 = load ptr, ptr %6, align 8, !tbaa !219
  %73 = load ptr, ptr @lengths, align 8, !tbaa !66
  %74 = load i32, ptr @testnum, align 4, !tbaa !4
  %75 = zext i32 %74 to i64
  %76 = getelementptr inbounds nuw i32, ptr %73, i64 %75
  %77 = load i32, ptr %76, align 4, !tbaa !4
  %78 = call i32 @EVP_EncryptUpdate(ptr noundef %72, ptr noundef null, ptr noundef %7, ptr noundef null, i32 noundef %77)
  %79 = icmp ne i32 %78, 0
  br i1 %79, label %83, label %80

80:                                               ; preds = %71
  %81 = load ptr, ptr @bio_err, align 8, !tbaa !53
  %82 = call i32 (ptr, ptr, ...) @BIO_printf(ptr noundef %81, ptr noundef @.str.171)
  call void @dofail()
  call void @exit(i32 noundef 1) #13
  unreachable

83:                                               ; preds = %71
  br label %84

84:                                               ; preds = %83, %68
  %85 = load i32, ptr @aead, align 4, !tbaa !4
  %86 = icmp ne i32 %85, 0
  br i1 %86, label %87, label %95

87:                                               ; preds = %84
  %88 = load ptr, ptr %6, align 8, !tbaa !219
  %89 = call i32 @EVP_EncryptUpdate(ptr noundef %88, ptr noundef null, ptr noundef %7, ptr noundef @aad, i32 noundef 13)
  %90 = icmp ne i32 %89, 0
  br i1 %90, label %94, label %91

91:                                               ; preds = %87
  %92 = load ptr, ptr @bio_err, align 8, !tbaa !53
  %93 = call i32 (ptr, ptr, ...) @BIO_printf(ptr noundef %92, ptr noundef @.str.172)
  call void @dofail()
  call void @exit(i32 noundef 1) #13
  unreachable

94:                                               ; preds = %87
  br label %95

95:                                               ; preds = %94, %84
  %96 = load ptr, ptr %6, align 8, !tbaa !219
  %97 = load ptr, ptr %4, align 8, !tbaa !39
  %98 = load ptr, ptr %4, align 8, !tbaa !39
  %99 = load ptr, ptr @lengths, align 8, !tbaa !66
  %100 = load i32, ptr @testnum, align 4, !tbaa !4
  %101 = zext i32 %100 to i64
  %102 = getelementptr inbounds nuw i32, ptr %99, i64 %101
  %103 = load i32, ptr %102, align 4, !tbaa !4
  %104 = call i32 @EVP_EncryptUpdate(ptr noundef %96, ptr noundef %97, ptr noundef %7, ptr noundef %98, i32 noundef %103)
  %105 = icmp ne i32 %104, 0
  br i1 %105, label %109, label %106

106:                                              ; preds = %95
  %107 = load ptr, ptr @bio_err, align 8, !tbaa !53
  %108 = call i32 (ptr, ptr, ...) @BIO_printf(ptr noundef %107, ptr noundef @.str.444)
  call void @dofail()
  call void @exit(i32 noundef 1) #13
  unreachable

109:                                              ; preds = %95
  %110 = load ptr, ptr %6, align 8, !tbaa !219
  %111 = load ptr, ptr %4, align 8, !tbaa !39
  %112 = call i32 @EVP_EncryptFinal_ex(ptr noundef %110, ptr noundef %111, ptr noundef %7)
  %113 = icmp ne i32 %112, 0
  br i1 %113, label %114, label %117

114:                                              ; preds = %109
  %115 = load i32, ptr %9, align 4, !tbaa !4
  %116 = add nsw i32 %115, 1
  store i32 %116, ptr %9, align 4, !tbaa !4
  br label %117

117:                                              ; preds = %114, %109
  br label %118

118:                                              ; preds = %117
  %119 = load i32, ptr %8, align 4, !tbaa !4
  %120 = add nsw i32 %119, 1
  store i32 %120, ptr %8, align 4, !tbaa !4
  br label %21, !llvm.loop !267

121:                                              ; preds = %30
  %122 = load i32, ptr %9, align 4, !tbaa !4
  call void @llvm.lifetime.end.p0(i64 4, ptr %9) #11
  call void @llvm.lifetime.end.p0(i64 4, ptr %8) #11
  call void @llvm.lifetime.end.p0(i64 4, ptr %7) #11
  call void @llvm.lifetime.end.p0(i64 8, ptr %6) #11
  call void @llvm.lifetime.end.p0(i64 8, ptr %5) #11
  call void @llvm.lifetime.end.p0(i64 8, ptr %4) #11
  call void @llvm.lifetime.end.p0(i64 8, ptr %3) #11
  ret i32 %122
}