; Function Attrs: nounwind uwtable
define internal i32 @EVP_Update_loop_aead_enc(ptr noundef readonly captures(none) %0) #0 {
  %2 = alloca i32, align 4
  %3 = load ptr, ptr %0, align 8, !tbaa !189
  %4 = getelementptr inbounds nuw i8, ptr %3, i64 16
  %5 = load ptr, ptr %4, align 8, !tbaa !53
  %6 = getelementptr inbounds nuw i8, ptr %3, i64 48
  %7 = load ptr, ptr %6, align 8, !tbaa !101
  %8 = getelementptr inbounds nuw i8, ptr %3, i64 1216
  %9 = load ptr, ptr %8, align 8, !tbaa !78
  call void @llvm.lifetime.start.p0(i64 4, ptr nonnull %2) #14
  %10 = load volatile i32, ptr @run, align 4, !tbaa !13
  %.not37 = icmp eq i32 %10, 0
  br i1 %.not37, label %.critedge, label %.lr.ph

.lr.ph:                                           ; preds = %1, %59
  %.039 = phi i32 [ %spec.select, %59 ], [ 0, %1 ]
  %.02138 = phi i32 [ %62, %59 ], [ 0, %1 ]
  %.b = load i1, ptr @testmode, align 4
  %11 = select i1 %.b, i32 1, i32 2147483647
  %12 = icmp samesign ult i32 %.02138, %11
  br i1 %12, label %13, label %.critedge

13:                                               ; preds = %.lr.ph
  %14 = load i32, ptr @mode_op, align 4, !tbaa !13
  %.not23 = icmp eq i32 %14, 65540
  br i1 %.not23, label %.thread, label %15

15:                                               ; preds = %13
  %16 = call i32 @EVP_CIPHER_CTX_ctrl(ptr noundef %9, i32 noundef 9, i32 noundef 12, ptr noundef null) #14
  %.not24 = icmp eq i32 %16, 0
  br i1 %.not24, label %17, label %20

17:                                               ; preds = %15
  %18 = load ptr, ptr @bio_err, align 8, !tbaa !19
  %19 = call i32 (ptr, ptr, ...) @BIO_printf(ptr noundef %18, ptr noundef nonnull @.str.169) #14
  call fastcc void @dofail()
  call void @exit(i32 noundef 1) #16
  unreachable

20:                                               ; preds = %15
  %.pr = load i32, ptr @mode_op, align 4, !tbaa !13
  switch i32 %.pr, label %21 [
    i32 65541, label %.thread
    i32 65540, label %.thread
    i32 6, label %.thread
  ]

21:                                               ; preds = %20
  %22 = call i32 @EVP_CIPHER_CTX_ctrl(ptr noundef %9, i32 noundef 17, i32 noundef 16, ptr noundef null) #14
  %.not25 = icmp eq i32 %22, 0
  br i1 %.not25, label %23, label %.thread

23:                                               ; preds = %21
  %24 = load ptr, ptr @bio_err, align 8, !tbaa !19
  %25 = call i32 (ptr, ptr, ...) @BIO_printf(ptr noundef %24, ptr noundef nonnull @.str.170) #14
  call fastcc void @dofail()
  call void @exit(i32 noundef 1) #16
  unreachable

.thread:                                          ; preds = %13, %20, %20, %20, %21
  %26 = call i32 @EVP_CipherInit_ex(ptr noundef %9, ptr noundef null, ptr noundef null, ptr noundef %7, ptr noundef nonnull @aead_iv, i32 noundef -1) #14
  %.not26 = icmp eq i32 %26, 0
  br i1 %.not26, label %27, label %30

27:                                               ; preds = %.thread
  %28 = load ptr, ptr @bio_err, align 8, !tbaa !19
  %29 = call i32 (ptr, ptr, ...) @BIO_printf(ptr noundef %28, ptr noundef nonnull @.str.438) #14
  call fastcc void @dofail()
  call void @exit(i32 noundef 1) #16
  unreachable

30:                                               ; preds = %.thread
  %31 = load i32, ptr @mode_op, align 4, !tbaa !13
  %32 = icmp eq i32 %31, 7
  br i1 %32, label %33, label %43

33:                                               ; preds = %30
  %34 = load ptr, ptr @lengths, align 8, !tbaa !26
  %35 = load i32, ptr @testnum, align 4, !tbaa !13
  %36 = zext i32 %35 to i64
  %37 = getelementptr inbounds nuw i32, ptr %34, i64 %36
  %38 = load i32, ptr %37, align 4, !tbaa !13
  %39 = call i32 @EVP_EncryptUpdate(ptr noundef %9, ptr noundef null, ptr noundef nonnull %2, ptr noundef null, i32 noundef %38) #14
  %.not27 = icmp eq i32 %39, 0
  br i1 %.not27, label %40, label %43

40:                                               ; preds = %33
  %41 = load ptr, ptr @bio_err, align 8, !tbaa !19
  %42 = call i32 (ptr, ptr, ...) @BIO_printf(ptr noundef %41, ptr noundef nonnull @.str.171) #14
  call fastcc void @dofail()
  call void @exit(i32 noundef 1) #16
  unreachable

43:                                               ; preds = %33, %30
  %.b22 = load i1, ptr @aead, align 4
  br i1 %.b22, label %44, label %49

44:                                               ; preds = %43
  %45 = call i32 @EVP_EncryptUpdate(ptr noundef %9, ptr noundef null, ptr noundef nonnull %2, ptr noundef nonnull @aad, i32 noundef 13) #14
  %.not28 = icmp eq i32 %45, 0
  br i1 %.not28, label %46, label %49

46:                                               ; preds = %44
  %47 = load ptr, ptr @bio_err, align 8, !tbaa !19
  %48 = call i32 (ptr, ptr, ...) @BIO_printf(ptr noundef %47, ptr noundef nonnull @.str.172) #14
  call fastcc void @dofail()
  call void @exit(i32 noundef 1) #16
  unreachable

49:                                               ; preds = %44, %43
  %50 = load ptr, ptr @lengths, align 8, !tbaa !26
  %51 = load i32, ptr @testnum, align 4, !tbaa !13
  %52 = zext i32 %51 to i64
  %53 = getelementptr inbounds nuw i32, ptr %50, i64 %52
  %54 = load i32, ptr %53, align 4, !tbaa !13
  %55 = call i32 @EVP_EncryptUpdate(ptr noundef %9, ptr noundef %5, ptr noundef nonnull %2, ptr noundef %5, i32 noundef %54) #14
  %.not29 = icmp eq i32 %55, 0
  br i1 %.not29, label %56, label %59

56:                                               ; preds = %49
  %57 = load ptr, ptr @bio_err, align 8, !tbaa !19
  %58 = call i32 (ptr, ptr, ...) @BIO_printf(ptr noundef %57, ptr noundef nonnull @.str.444) #14
  call fastcc void @dofail()
  call void @exit(i32 noundef 1) #16
  unreachable

59:                                               ; preds = %49
  %60 = call i32 @EVP_EncryptFinal_ex(ptr noundef %9, ptr noundef %5, ptr noundef nonnull %2) #14
  %.not30 = icmp ne i32 %60, 0
  %61 = zext i1 %.not30 to i32
  %spec.select = add nuw nsw i32 %.039, %61
  %62 = add nuw nsw i32 %.02138, 1
  %63 = load volatile i32, ptr @run, align 4, !tbaa !13
  %.not = icmp eq i32 %63, 0
  br i1 %.not, label %.critedge, label %.lr.ph, !llvm.loop !214

.critedge:                                        ; preds = %.lr.ph, %59, %1
  %.0.lcssa = phi i32 [ 0, %1 ], [ %spec.select, %59 ], [ %.039, %.lr.ph ]
  call void @llvm.lifetime.end.p0(i64 4, ptr nonnull %2) #14
  ret i32 %.0.lcssa
}